target datalayout = "e-m:e-p270:32:32-p271:32:32-p272:64:64-i64:64-i128:128-f80:128-n8:16:32:64-S128"
target triple = "x86_64-pc-linux-gnu"

%struct.crypto_ex_data_st = type { ptr }
%struct.ssl_st = type { i32, i16, i16, ptr, ptr, ptr, ptr, ptr, i32, i32, ptr, ptr, i32, i32, ptr, ptr, ptr, ptr, ptr, ptr, ptr, ptr, i32, i32, [32 x i8], ptr, ptr, ptr, ptr, ptr, ptr, ptr, i64, %struct.crypto_ex_data_st, ptr, i32, i32, i32, i32, i16, ptr, i32, i64, ptr, ptr, ptr, ptr, ptr, ptr, i32, i32, ptr, ptr, i8, i8, i32 }
%struct.ssl_protocol_method_st = type { i8, ptr, ptr, ptr, ptr, ptr, ptr, ptr, ptr, ptr, ptr, ptr, i32, ptr, ptr }
%struct.dtls1_state_st = type { i32, [256 x i8], i64, i16, i16, %struct.dtls1_bitmap_st, i16, i16, i16, [8 x i8], ptr, ptr, i32, %struct.hm_header_st, i32, %struct.timeval, i16 }
%struct.dtls1_bitmap_st = type { i64, i64 }
%struct.hm_header_st = type { i8, i32, i16, i32, i32, i32, i16 }
%struct.timeval = type { i64, i64 }

; Function Attrs: nounwind uwtable
define hidden i32 @SSL_set_mtu(ptr noundef %0, i32 noundef %1) #0 {
  %3 = alloca i32, align 4
  %4 = alloca ptr, align 8
  %5 = alloca i32, align 4
  store ptr %0, ptr %4, align 8, !tbaa !80
  store i32 %1, ptr %5, align 4, !tbaa !61
  %6 = load ptr, ptr %4, align 8, !tbaa !80
  %7 = getelementptr inbounds nuw %struct.ssl_st, ptr %6, i32 0, i32 3
  %8 = load ptr, ptr %7, align 8, !tbaa !117
  %9 = getelementptr inbounds nuw %struct.ssl_protocol_method_st, ptr %8, i32 0, i32 0
  %10 = load i8, ptr %9, align 8, !tbaa !192
  %11 = icmp ne i8 %10, 0
  br i1 %11, label %12, label %16

12:                                               ; preds = %2
  %13 = load i32, ptr %5, align 4, !tbaa !61
  %14 = call i32 @dtls1_min_mtu()
  %15 = icmp ult i32 %13, %14
  br i1 %15, label %16, label %17

16:                                               ; preds = %12, %2
  store i32 0, ptr %3, align 4
  br label %23

17:                                               ; preds = %12
  %18 = load i32, ptr %5, align 4, !tbaa !61
  %19 = load ptr, ptr %4, align 8, !tbaa !80
  %20 = getelementptr inbounds nuw %struct.ssl_st, ptr %19, i32 0, i32 15
  %21 = load ptr, ptr %20, align 8, !tbaa !193
  %22 = getelementptr inbounds nuw %struct.dtls1_state_st, ptr %21, i32 0, i32 12
  store i32 %18, ptr %22, align 8, !tbaa !194
  store i32 1, ptr %3, align 4
  br label %23

23:                                               ; preds = %17, %16
  %24 = load i32, ptr %3, align 4
  ret i32 %24
}