; Function Attrs: nounwind uwtable
define hidden range(i32 0, 2) i32 @SSL_set_mtu(ptr noundef readonly captures(none) %0, i32 noundef %1) local_unnamed_addr #0 {
  %3 = getelementptr inbounds nuw i8, ptr %0, i64 8
  %4 = load ptr, ptr %3, align 8, !tbaa !106
  %5 = load i8, ptr %4, align 8, !tbaa !174
  %.not = icmp eq i8 %5, 0
  br i1 %.not, label %13, label %6

6:                                                ; preds = %2
  %7 = tail call i32 @dtls1_min_mtu() #21
  %8 = icmp ult i32 %1, %7
  br i1 %8, label %13, label %9

9:                                                ; preds = %6
  %10 = getelementptr inbounds nuw i8, ptr %0, i64 88
  %11 = load ptr, ptr %10, align 8, !tbaa !175
  %12 = getelementptr inbounds nuw i8, ptr %11, i64 328
  store i32 %1, ptr %12, align 8, !tbaa !176
  br label %13

13:                                               ; preds = %2, %6, %9
  %.0 = phi i32 [ 1, %9 ], [ 0, %6 ], [ 0, %2 ]
  ret i32 %.0
}